target datalayout = "e-m:e-p270:32:32-p271:32:32-p272:64:64-i64:64-i128:128-f80:128-n8:16:32:64-S128"
target triple = "x86_64-pc-linux-gnu"

%struct.OnigEncodingTypeST = type { ptr, ptr, i32, i32, ptr, ptr, ptr, ptr, ptr, ptr, ptr, ptr, ptr, ptr, ptr, ptr, ptr, ptr, ptr, i32, i32, i32 }
%struct.OnigMatchParamStruct = type { i32, i64, i64, ptr, ptr, ptr, i32, ptr, i32 }
%struct.MatchArg = type { ptr, i32, i32, ptr, i32, ptr, i32, i64, i64, i64, ptr, i32, ptr, i64, ptr }
%struct.re_pattern_buffer = type { ptr, ptr, ptr, i32, i32, ptr, ptr, i32, i32, i32, i32, i32, i32, i32, i32, i32, ptr, ptr, i32, ptr, i32, ptr, i32, i32, i32, i32, i32, i32, ptr, ptr, [256 x i8], i32, i32, i32, ptr }
%struct.RegexExt = type { ptr, ptr, ptr, i32, i32, ptr }

; Function Attrs: nounwind uwtable
define internal i32 @adjust_match_param(ptr noundef %0, ptr noundef %1) #0 {
  %3 = alloca i32, align 4
  %4 = alloca ptr, align 8
  %5 = alloca ptr, align 8
  %6 = alloca ptr, align 8
  %7 = alloca i32, align 4
  %8 = alloca ptr, align 8
  %9 = alloca i64, align 8
  store ptr %0, ptr %4, align 8, !tbaa !57
  store ptr %1, ptr %5, align 8, !tbaa !4
  call void @llvm.lifetime.start.p0(i64 8, ptr %6) #9
  %10 = load ptr, ptr %4, align 8, !tbaa !57
  %11 = getelementptr inbounds nuw %struct.re_pattern_buffer, ptr %10, i32 0, i32 34
  %12 = load ptr, ptr %11, align 8, !tbaa !104
  store ptr %12, ptr %6, align 8, !tbaa !17
  %13 = load ptr, ptr %5, align 8, !tbaa !4
  %14 = getelementptr inbounds nuw %struct.OnigMatchParamStruct, ptr %13, i32 0, i32 6
  store i32 0, ptr %14, align 8, !tbaa !42
  %15 = load ptr, ptr %6, align 8, !tbaa !17
  %16 = icmp eq ptr %15, null
  br i1 %16, label %22, label %17

17:                                               ; preds = %2
  %18 = load ptr, ptr %6, align 8, !tbaa !17
  %19 = getelementptr inbounds nuw %struct.RegexExt, ptr %18, i32 0, i32 3
  %20 = load i32, ptr %19, align 8, !tbaa !105
  %21 = icmp eq i32 %20, 0
  br i1 %21, label %22, label %23

22:                                               ; preds = %17, %2
  store i32 0, ptr %3, align 4
  store i32 1, ptr %7, align 4
  br label %75

23:                                               ; preds = %17
  %24 = load ptr, ptr %6, align 8, !tbaa !17
  %25 = getelementptr inbounds nuw %struct.RegexExt, ptr %24, i32 0, i32 3
  %26 = load i32, ptr %25, align 8, !tbaa !105
  %27 = load ptr, ptr %5, align 8, !tbaa !4
  %28 = getelementptr inbounds nuw %struct.OnigMatchParamStruct, ptr %27, i32 0, i32 8
  %29 = load i32, ptr %28, align 8, !tbaa !44
  %30 = icmp sgt i32 %26, %29
  br i1 %30, label %31, label %66

31:                                               ; preds = %23
  call void @llvm.lifetime.start.p0(i64 8, ptr %8) #9
  call void @llvm.lifetime.start.p0(i64 8, ptr %9) #9
  %32 = load ptr, ptr %6, align 8, !tbaa !17
  %33 = getelementptr inbounds nuw %struct.RegexExt, ptr %32, i32 0, i32 3
  %34 = load i32, ptr %33, align 8, !tbaa !105
  %35 = sext i32 %34 to i64
  %36 = mul i64 %35, 128
  store i64 %36, ptr %9, align 8, !tbaa !14
  %37 = load ptr, ptr %5, align 8, !tbaa !4
  %38 = getelementptr inbounds nuw %struct.OnigMatchParamStruct, ptr %37, i32 0, i32 7
  %39 = load ptr, ptr %38, align 8, !tbaa !43
  %40 = icmp ne ptr %39, null
  br i1 %40, label %41, label %47

41:                                               ; preds = %31
  %42 = load ptr, ptr %5, align 8, !tbaa !4
  %43 = getelementptr inbounds nuw %struct.OnigMatchParamStruct, ptr %42, i32 0, i32 7
  %44 = load ptr, ptr %43, align 8, !tbaa !43
  %45 = load i64, ptr %9, align 8, !tbaa !14
  %46 = call ptr @realloc(ptr noundef %44, i64 noundef %45) #11
  store ptr %46, ptr %8, align 8, !tbaa !17
  br label %50

47:                                               ; preds = %31
  %48 = load i64, ptr %9, align 8, !tbaa !14
  %49 = call noalias ptr @malloc(i64 noundef %48) #10
  store ptr %49, ptr %8, align 8, !tbaa !17
  br label %50

50:                                               ; preds = %47, %41
  %51 = load ptr, ptr %8, align 8, !tbaa !17
  %52 = icmp eq ptr %51, null
  br i1 %52, label %53, label %54

53:                                               ; preds = %50
  store i32 -5, ptr %3, align 4
  store i32 1, ptr %7, align 4
  br label %63

54:                                               ; preds = %50
  %55 = load ptr, ptr %8, align 8, !tbaa !17
  %56 = load ptr, ptr %5, align 8, !tbaa !4
  %57 = getelementptr inbounds nuw %struct.OnigMatchParamStruct, ptr %56, i32 0, i32 7
  store ptr %55, ptr %57, align 8, !tbaa !43
  %58 = load ptr, ptr %6, align 8, !tbaa !17
  %59 = getelementptr inbounds nuw %struct.RegexExt, ptr %58, i32 0, i32 3
  %60 = load i32, ptr %59, align 8, !tbaa !105
  %61 = load ptr, ptr %5, align 8, !tbaa !4
  %62 = getelementptr inbounds nuw %struct.OnigMatchParamStruct, ptr %61, i32 0, i32 8
  store i32 %60, ptr %62, align 8, !tbaa !44
  store i32 0, ptr %7, align 4
  br label %63

63:                                               ; preds = %54, %53
  call void @llvm.lifetime.end.p0(i64 8, ptr %9) #9
  call void @llvm.lifetime.end.p0(i64 8, ptr %8) #9
  %64 = load i32, ptr %7, align 4
  switch i32 %64, label %75 [
    i32 0, label %65
  ]

65:                                               ; preds = %63
  br label %66

66:                                               ; preds = %65, %23
  %67 = load ptr, ptr %5, align 8, !tbaa !4
  %68 = getelementptr inbounds nuw %struct.OnigMatchParamStruct, ptr %67, i32 0, i32 7
  %69 = load ptr, ptr %68, align 8, !tbaa !43
  %70 = load ptr, ptr %5, align 8, !tbaa !4
  %71 = getelementptr inbounds nuw %struct.OnigMatchParamStruct, ptr %70, i32 0, i32 8
  %72 = load i32, ptr %71, align 8, !tbaa !44
  %73 = sext i32 %72 to i64
  %74 = mul i64 %73, 128
  call void @llvm.memset.p0.i64(ptr align 8 %69, i8 0, i64 %74, i1 false)
  store i32 0, ptr %3, align 4
  store i32 1, ptr %7, align 4
  br label %75

75:                                               ; preds = %66, %63, %22
  call void @llvm.lifetime.end.p0(i64 8, ptr %6) #9
  %76 = load i32, ptr %3, align 4
  ret i32 %76
}

; Function Attrs: nounwind uwtable
define dso_local i32 @onig_match_with_param(ptr noundef %0, ptr noundef %1, ptr noundef %2, ptr noundef %3, ptr noundef %4, i32 noundef %5, ptr noundef %6) #0 {
  %8 = alloca i32, align 4
  %9 = alloca ptr, align 8
  %10 = alloca ptr, align 8
  %11 = alloca ptr, align 8
  %12 = alloca ptr, align 8
  %13 = alloca ptr, align 8
  %14 = alloca i32, align 4
  %15 = alloca ptr, align 8
  %16 = alloca i32, align 4
  %17 = alloca %struct.MatchArg, align 8
  %18 = alloca i32, align 4
  store ptr %0, ptr %9, align 8, !tbaa !57
  store ptr %1, ptr %10, align 8, !tbaa !60
  store ptr %2, ptr %11, align 8, !tbaa !60
  store ptr %3, ptr %12, align 8, !tbaa !60
  store ptr %4, ptr %13, align 8, !tbaa !21
  store i32 %5, ptr %14, align 4, !tbaa !9
  store ptr %6, ptr %15, align 8, !tbaa !4
  call void @llvm.lifetime.start.p0(i64 4, ptr %16) #9
  call void @llvm.lifetime.start.p0(i64 112, ptr %17) #9
  %19 = load i32, ptr %14, align 4, !tbaa !9
  %20 = and i32 %19, 2048
  %21 = icmp ne i32 %20, 0
  br i1 %21, label %22, label %23

22:                                               ; preds = %7
  store i32 -30, ptr %8, align 4
  store i32 1, ptr %18, align 4
  br label %132

23:                                               ; preds = %7
  %24 = load ptr, ptr %9, align 8, !tbaa !57
  %25 = load ptr, ptr %15, align 8, !tbaa !4
  %26 = call i32 @adjust_match_param(ptr noundef %24, ptr noundef %25)
  store i32 %26, ptr %16, align 4, !tbaa !9
  %27 = load i32, ptr %16, align 4, !tbaa !9
  %28 = icmp ne i32 %27, 0
  br i1 %28, label %29, label %31

29:                                               ; preds = %23
  %30 = load i32, ptr %16, align 4, !tbaa !9
  store i32 %30, ptr %8, align 4
  store i32 1, ptr %18, align 4
  br label %132

31:                                               ; preds = %23
  br label %32

32:                                               ; preds = %31
  %33 = getelementptr inbounds nuw %struct.MatchArg, ptr %17, i32 0, i32 0
  store ptr null, ptr %33, align 8, !tbaa !85
  %34 = load i32, ptr %14, align 4, !tbaa !9
  %35 = load ptr, ptr %9, align 8, !tbaa !57
  %36 = getelementptr inbounds nuw %struct.re_pattern_buffer, ptr %35, i32 0, i32 18
  %37 = load i32, ptr %36, align 8, !tbaa !86
  %38 = or i32 %34, %37
  %39 = getelementptr inbounds nuw %struct.MatchArg, ptr %17, i32 0, i32 2
  store i32 %38, ptr %39, align 4, !tbaa !87
  %40 = load ptr, ptr %13, align 8, !tbaa !21
  %41 = getelementptr inbounds nuw %struct.MatchArg, ptr %17, i32 0, i32 3
  store ptr %40, ptr %41, align 8, !tbaa !88
  %42 = load ptr, ptr %12, align 8, !tbaa !60
  %43 = getelementptr inbounds nuw %struct.MatchArg, ptr %17, i32 0, i32 5
  store ptr %42, ptr %43, align 8, !tbaa !89
  %44 = load ptr, ptr %15, align 8, !tbaa !4
  %45 = getelementptr inbounds nuw %struct.OnigMatchParamStruct, ptr %44, i32 0, i32 0
  %46 = load i32, ptr %45, align 8, !tbaa !11
  %47 = getelementptr inbounds nuw %struct.MatchArg, ptr %17, i32 0, i32 6
  store i32 %46, ptr %47, align 8, !tbaa !90
  %48 = load ptr, ptr %15, align 8, !tbaa !4
  %49 = getelementptr inbounds nuw %struct.OnigMatchParamStruct, ptr %48, i32 0, i32 1
  %50 = load i64, ptr %49, align 8, !tbaa !15
  %51 = getelementptr inbounds nuw %struct.MatchArg, ptr %17, i32 0, i32 7
  store i64 %50, ptr %51, align 8, !tbaa !91
  %52 = load ptr, ptr %15, align 8, !tbaa !4
  %53 = getelementptr inbounds nuw %struct.OnigMatchParamStruct, ptr %52, i32 0, i32 2
  %54 = load i64, ptr %53, align 8, !tbaa !16
  %55 = getelementptr inbounds nuw %struct.MatchArg, ptr %17, i32 0, i32 8
  store i64 %54, ptr %55, align 8, !tbaa !92
  %56 = getelementptr inbounds nuw %struct.MatchArg, ptr %17, i32 0, i32 9
  store i64 0, ptr %56, align 8, !tbaa !93
  %57 = getelementptr inbounds nuw %struct.MatchArg, ptr %17, i32 0, i32 13
  store i64 0, ptr %57, align 8, !tbaa !94
  %58 = load ptr, ptr %15, align 8, !tbaa !4
  %59 = getelementptr inbounds nuw %struct.MatchArg, ptr %17, i32 0, i32 10
  store ptr %58, ptr %59, align 8, !tbaa !52
  %60 = getelementptr inbounds nuw %struct.MatchArg, ptr %17, i32 0, i32 11
  store i32 -1, ptr %60, align 8, !tbaa !95
  %61 = load ptr, ptr %9, align 8, !tbaa !57
  %62 = getelementptr inbounds nuw %struct.re_pattern_buffer, ptr %61, i32 0, i32 7
  %63 = load i32, ptr %62, align 8, !tbaa !76
  %64 = add nsw i32 %63, 1
  %65 = mul nsw i32 %64, 2
  %66 = getelementptr inbounds nuw %struct.MatchArg, ptr %17, i32 0, i32 4
  store i32 %65, ptr %66, align 8, !tbaa !96
  %67 = load ptr, ptr %12, align 8, !tbaa !60
  %68 = getelementptr inbounds nuw %struct.MatchArg, ptr %17, i32 0, i32 14
  store ptr %67, ptr %68, align 8, !tbaa !97
  br label %69

69:                                               ; preds = %32
  br label %70

70:                                               ; preds = %69
  %71 = load ptr, ptr %13, align 8, !tbaa !21
  %72 = icmp ne ptr %71, null
  br i1 %72, label %73, label %80

73:                                               ; preds = %70
  %74 = load ptr, ptr %13, align 8, !tbaa !21
  %75 = load ptr, ptr %9, align 8, !tbaa !57
  %76 = getelementptr inbounds nuw %struct.re_pattern_buffer, ptr %75, i32 0, i32 7
  %77 = load i32, ptr %76, align 8, !tbaa !76
  %78 = add nsw i32 %77, 1
  %79 = call i32 @onig_region_resize_clear(ptr noundef %74, i32 noundef %78)
  store i32 %79, ptr %16, align 4, !tbaa !9
  br label %81

80:                                               ; preds = %70
  store i32 0, ptr %16, align 4, !tbaa !9
  br label %81

81:                                               ; preds = %80, %73
  %82 = load i32, ptr %16, align 4, !tbaa !9
  %83 = icmp eq i32 %82, 0
  br i1 %83, label %84, label %122

84:                                               ; preds = %81
  %85 = load i32, ptr %14, align 4, !tbaa !9
  %86 = and i32 %85, 4096
  %87 = icmp ne i32 %86, 0
  br i1 %87, label %88, label %100

88:                                               ; preds = %84
  %89 = load ptr, ptr %9, align 8, !tbaa !57
  %90 = getelementptr inbounds nuw %struct.re_pattern_buffer, ptr %89, i32 0, i32 17
  %91 = load ptr, ptr %90, align 8, !tbaa !108
  %92 = getelementptr inbounds nuw %struct.OnigEncodingTypeST, ptr %91, i32 0, i32 18
  %93 = load ptr, ptr %92, align 8, !tbaa !79
  %94 = load ptr, ptr %10, align 8, !tbaa !60
  %95 = load ptr, ptr %11, align 8, !tbaa !60
  %96 = call i32 %93(ptr noundef %94, ptr noundef %95)
  %97 = icmp ne i32 %96, 0
  br i1 %97, label %99, label %98

98:                                               ; preds = %88
  store i32 -400, ptr %16, align 4, !tbaa !9
  br label %123

99:                                               ; preds = %88
  br label %100

100:                                              ; preds = %99, %84
  %101 = load ptr, ptr %9, align 8, !tbaa !57
  %102 = load ptr, ptr %10, align 8, !tbaa !60
  %103 = load ptr, ptr %11, align 8, !tbaa !60
  %104 = load ptr, ptr %11, align 8, !tbaa !60
  %105 = load ptr, ptr %12, align 8, !tbaa !60
  %106 = call i32 @match_at(ptr noundef %101, ptr noundef %102, ptr noundef %103, ptr noundef %104, ptr noundef %105, ptr noundef %17)
  store i32 %106, ptr %16, align 4, !tbaa !9
  %107 = load i32, ptr %14, align 4, !tbaa !9
  %108 = and i32 %107, 16
  %109 = icmp ne i32 %108, 0
  br i1 %109, label %110, label %121

110:                                              ; preds = %100
  %111 = load i32, ptr %16, align 4, !tbaa !9
  %112 = icmp eq i32 %111, -1
  br i1 %112, label %113, label %121

113:                                              ; preds = %110
  %114 = getelementptr inbounds nuw %struct.MatchArg, ptr %17, i32 0, i32 11
  %115 = load i32, ptr %114, align 8, !tbaa !95
  %116 = icmp sge i32 %115, 0
  br i1 %116, label %117, label %120

117:                                              ; preds = %113
  %118 = getelementptr inbounds nuw %struct.MatchArg, ptr %17, i32 0, i32 11
  %119 = load i32, ptr %118, align 8, !tbaa !95
  store i32 %119, ptr %16, align 4, !tbaa !9
  br label %120

120:                                              ; preds = %117, %113
  br label %121

121:                                              ; preds = %120, %110, %100
  br label %122

122:                                              ; preds = %121, %81
  br label %123

123:                                              ; preds = %122, %98
  %124 = getelementptr inbounds nuw %struct.MatchArg, ptr %17, i32 0, i32 0
  %125 = load ptr, ptr %124, align 8, !tbaa !85
  %126 = icmp ne ptr %125, null
  br i1 %126, label %127, label %130

127:                                              ; preds = %123
  %128 = getelementptr inbounds nuw %struct.MatchArg, ptr %17, i32 0, i32 0
  %129 = load ptr, ptr %128, align 8, !tbaa !85
  call void @free(ptr noundef %129) #9
  br label %130

130:                                              ; preds = %127, %123
  %131 = load i32, ptr %16, align 4, !tbaa !9
  store i32 %131, ptr %8, align 4
  store i32 1, ptr %18, align 4
  br label %132

132:                                              ; preds = %130, %29, %22
  call void @llvm.lifetime.end.p0(i64 112, ptr %17) #9
  call void @llvm.lifetime.end.p0(i64 4, ptr %16) #9
  %133 = load i32, ptr %8, align 4
  ret i32 %133
}